target datalayout = "e-m:e-p270:32:32-p271:32:32-p272:64:64-i64:64-i128:128-f80:128-n8:16:32:64-S128"
target triple = "x86_64-pc-linux-gnu"

%union.pthread_mutex_t = type { %struct.__pthread_mutex_s }
%struct.__pthread_mutex_s = type { i32, i32, i32, i32, i32, i16, i16, %struct.__pthread_internal_list }
%struct.__pthread_internal_list = type { ptr, ptr }
%struct._stritem = type { ptr, ptr, ptr, i32, i32, i32, i16, i16, i8, i8, [0 x %union.anon] }
%union.anon = type { i64 }

@lru_locks = external global [256 x %union.pthread_mutex_t], align 16
@sizes = internal global [256 x i32] zeroinitializer, align 16
@heads = internal global [256 x ptr] zeroinitializer, align 16
@tails = internal global [256 x ptr] zeroinitializer, align 16
@sizes_bytes = internal global [256 x i64] zeroinitializer, align 16

; Function Attrs: nounwind uwtable
define internal void @do_item_unlink_q(ptr noundef %0) #0 {
  %2 = alloca ptr, align 8
  %3 = alloca ptr, align 8
  %4 = alloca ptr, align 8
  store ptr %0, ptr %2, align 8, !tbaa !16
  call void @llvm.lifetime.start.p0(i64 8, ptr %3) #9
  call void @llvm.lifetime.start.p0(i64 8, ptr %4) #9
  %5 = load ptr, ptr %2, align 8, !tbaa !16
  %6 = getelementptr inbounds nuw %struct._stritem, ptr %5, i32 0, i32 8
  %7 = load i8, ptr %6, align 8, !tbaa !30
  %8 = zext i8 %7 to i64
  %9 = getelementptr inbounds nuw [256 x ptr], ptr @heads, i64 0, i64 %8
  store ptr %9, ptr %3, align 8, !tbaa !70
  %10 = load ptr, ptr %2, align 8, !tbaa !16
  %11 = getelementptr inbounds nuw %struct._stritem, ptr %10, i32 0, i32 8
  %12 = load i8, ptr %11, align 8, !tbaa !30
  %13 = zext i8 %12 to i64
  %14 = getelementptr inbounds nuw [256 x ptr], ptr @tails, i64 0, i64 %13
  store ptr %14, ptr %4, align 8, !tbaa !70
  %15 = load ptr, ptr %3, align 8, !tbaa !70
  %16 = load ptr, ptr %15, align 8, !tbaa !16
  %17 = load ptr, ptr %2, align 8, !tbaa !16
  %18 = icmp eq ptr %16, %17
  br i1 %18, label %19, label %24

19:                                               ; preds = %1
  %20 = load ptr, ptr %2, align 8, !tbaa !16
  %21 = getelementptr inbounds nuw %struct._stritem, ptr %20, i32 0, i32 0
  %22 = load ptr, ptr %21, align 8, !tbaa !16
  %23 = load ptr, ptr %3, align 8, !tbaa !70
  store ptr %22, ptr %23, align 8, !tbaa !16
  br label %24

24:                                               ; preds = %19, %1
  %25 = load ptr, ptr %4, align 8, !tbaa !70
  %26 = load ptr, ptr %25, align 8, !tbaa !16
  %27 = load ptr, ptr %2, align 8, !tbaa !16
  %28 = icmp eq ptr %26, %27
  br i1 %28, label %29, label %34

29:                                               ; preds = %24
  %30 = load ptr, ptr %2, align 8, !tbaa !16
  %31 = getelementptr inbounds nuw %struct._stritem, ptr %30, i32 0, i32 1
  %32 = load ptr, ptr %31, align 8, !tbaa !16
  %33 = load ptr, ptr %4, align 8, !tbaa !70
  store ptr %32, ptr %33, align 8, !tbaa !16
  br label %34

34:                                               ; preds = %29, %24
  %35 = load ptr, ptr %2, align 8, !tbaa !16
  %36 = getelementptr inbounds nuw %struct._stritem, ptr %35, i32 0, i32 0
  %37 = load ptr, ptr %36, align 8, !tbaa !16
  %38 = icmp ne ptr %37, null
  br i1 %38, label %39, label %47

39:                                               ; preds = %34
  %40 = load ptr, ptr %2, align 8, !tbaa !16
  %41 = getelementptr inbounds nuw %struct._stritem, ptr %40, i32 0, i32 1
  %42 = load ptr, ptr %41, align 8, !tbaa !16
  %43 = load ptr, ptr %2, align 8, !tbaa !16
  %44 = getelementptr inbounds nuw %struct._stritem, ptr %43, i32 0, i32 0
  %45 = load ptr, ptr %44, align 8, !tbaa !16
  %46 = getelementptr inbounds nuw %struct._stritem, ptr %45, i32 0, i32 1
  store ptr %42, ptr %46, align 8, !tbaa !16
  br label %47

47:                                               ; preds = %39, %34
  %48 = load ptr, ptr %2, align 8, !tbaa !16
  %49 = getelementptr inbounds nuw %struct._stritem, ptr %48, i32 0, i32 1
  %50 = load ptr, ptr %49, align 8, !tbaa !16
  %51 = icmp ne ptr %50, null
  br i1 %51, label %52, label %60

52:                                               ; preds = %47
  %53 = load ptr, ptr %2, align 8, !tbaa !16
  %54 = getelementptr inbounds nuw %struct._stritem, ptr %53, i32 0, i32 0
  %55 = load ptr, ptr %54, align 8, !tbaa !16
  %56 = load ptr, ptr %2, align 8, !tbaa !16
  %57 = getelementptr inbounds nuw %struct._stritem, ptr %56, i32 0, i32 1
  %58 = load ptr, ptr %57, align 8, !tbaa !16
  %59 = getelementptr inbounds nuw %struct._stritem, ptr %58, i32 0, i32 0
  store ptr %55, ptr %59, align 8, !tbaa !16
  br label %60

60:                                               ; preds = %52, %47
  %61 = load ptr, ptr %2, align 8, !tbaa !16
  %62 = getelementptr inbounds nuw %struct._stritem, ptr %61, i32 0, i32 8
  %63 = load i8, ptr %62, align 8, !tbaa !30
  %64 = zext i8 %63 to i64
  %65 = getelementptr inbounds nuw [256 x i32], ptr @sizes, i64 0, i64 %64
  %66 = load i32, ptr %65, align 4, !tbaa !4
  %67 = add i32 %66, -1
  store i32 %67, ptr %65, align 4, !tbaa !4
  %68 = load ptr, ptr %2, align 8, !tbaa !16
  %69 = getelementptr inbounds nuw %struct._stritem, ptr %68, i32 0, i32 7
  %70 = load i16, ptr %69, align 2, !tbaa !34
  %71 = zext i16 %70 to i32
  %72 = and i32 %71, 128
  %73 = icmp ne i32 %72, 0
  br i1 %73, label %74, label %115

74:                                               ; preds = %60
  %75 = load ptr, ptr %2, align 8, !tbaa !16
  %76 = getelementptr inbounds nuw %struct._stritem, ptr %75, i32 0, i32 9
  %77 = load i8, ptr %76, align 1, !tbaa !30
  %78 = zext i8 %77 to i64
  %79 = add i64 48, %78
  %80 = add i64 %79, 1
  %81 = load ptr, ptr %2, align 8, !tbaa !16
  %82 = getelementptr inbounds nuw %struct._stritem, ptr %81, i32 0, i32 5
  %83 = load i32, ptr %82, align 8, !tbaa !4
  %84 = sext i32 %83 to i64
  %85 = add i64 %80, %84
  %86 = load ptr, ptr %2, align 8, !tbaa !16
  %87 = getelementptr inbounds nuw %struct._stritem, ptr %86, i32 0, i32 7
  %88 = load i16, ptr %87, align 2, !tbaa !34
  %89 = zext i16 %88 to i32
  %90 = and i32 %89, 256
  %91 = icmp ne i32 %90, 0
  %92 = select i1 %91, i64 4, i64 0
  %93 = add i64 %85, %92
  %94 = load ptr, ptr %2, align 8, !tbaa !16
  %95 = getelementptr inbounds nuw %struct._stritem, ptr %94, i32 0, i32 7
  %96 = load i16, ptr %95, align 2, !tbaa !34
  %97 = zext i16 %96 to i32
  %98 = and i32 %97, 2
  %99 = icmp ne i32 %98, 0
  %100 = select i1 %99, i64 8, i64 0
  %101 = add i64 %93, %100
  %102 = load ptr, ptr %2, align 8, !tbaa !16
  %103 = getelementptr inbounds nuw %struct._stritem, ptr %102, i32 0, i32 5
  %104 = load i32, ptr %103, align 8, !tbaa !4
  %105 = sext i32 %104 to i64
  %106 = sub i64 %101, %105
  %107 = add i64 %106, 12
  %108 = load ptr, ptr %2, align 8, !tbaa !16
  %109 = getelementptr inbounds nuw %struct._stritem, ptr %108, i32 0, i32 8
  %110 = load i8, ptr %109, align 8, !tbaa !30
  %111 = zext i8 %110 to i64
  %112 = getelementptr inbounds nuw [256 x i64], ptr @sizes_bytes, i64 0, i64 %111
  %113 = load i64, ptr %112, align 8, !tbaa !10
  %114 = sub i64 %113, %107
  store i64 %114, ptr %112, align 8, !tbaa !10
  br label %150

115:                                              ; preds = %60
  %116 = load ptr, ptr %2, align 8, !tbaa !16
  %117 = getelementptr inbounds nuw %struct._stritem, ptr %116, i32 0, i32 9
  %118 = load i8, ptr %117, align 1, !tbaa !30
  %119 = zext i8 %118 to i64
  %120 = add i64 48, %119
  %121 = add i64 %120, 1
  %122 = load ptr, ptr %2, align 8, !tbaa !16
  %123 = getelementptr inbounds nuw %struct._stritem, ptr %122, i32 0, i32 5
  %124 = load i32, ptr %123, align 8, !tbaa !4
  %125 = sext i32 %124 to i64
  %126 = add i64 %121, %125
  %127 = load ptr, ptr %2, align 8, !tbaa !16
  %128 = getelementptr inbounds nuw %struct._stritem, ptr %127, i32 0, i32 7
  %129 = load i16, ptr %128, align 2, !tbaa !34
  %130 = zext i16 %129 to i32
  %131 = and i32 %130, 256
  %132 = icmp ne i32 %131, 0
  %133 = select i1 %132, i64 4, i64 0
  %134 = add i64 %126, %133
  %135 = load ptr, ptr %2, align 8, !tbaa !16
  %136 = getelementptr inbounds nuw %struct._stritem, ptr %135, i32 0, i32 7
  %137 = load i16, ptr %136, align 2, !tbaa !34
  %138 = zext i16 %137 to i32
  %139 = and i32 %138, 2
  %140 = icmp ne i32 %139, 0
  %141 = select i1 %140, i64 8, i64 0
  %142 = add i64 %134, %141
  %143 = load ptr, ptr %2, align 8, !tbaa !16
  %144 = getelementptr inbounds nuw %struct._stritem, ptr %143, i32 0, i32 8
  %145 = load i8, ptr %144, align 8, !tbaa !30
  %146 = zext i8 %145 to i64
  %147 = getelementptr inbounds nuw [256 x i64], ptr @sizes_bytes, i64 0, i64 %146
  %148 = load i64, ptr %147, align 8, !tbaa !10
  %149 = sub i64 %148, %142
  store i64 %149, ptr %147, align 8, !tbaa !10
  br label %150

150:                                              ; preds = %115, %74
  call void @llvm.lifetime.end.p0(i64 8, ptr %4) #9
  call void @llvm.lifetime.end.p0(i64 8, ptr %3) #9
  ret void
}

; Function Attrs: nounwind uwtable
define internal void @item_unlink_q(ptr noundef %0) #0 {
  %2 = alloca ptr, align 8
  store ptr %0, ptr %2, align 8, !tbaa !16
  %3 = load ptr, ptr %2, align 8, !tbaa !16
  %4 = getelementptr inbounds nuw %struct._stritem, ptr %3, i32 0, i32 8
  %5 = load i8, ptr %4, align 8, !tbaa !30
  %6 = zext i8 %5 to i64
  %7 = getelementptr inbounds nuw [256 x %union.pthread_mutex_t], ptr @lru_locks, i64 0, i64 %6
  %8 = call i32 @pthread_mutex_lock(ptr noundef %7) #9
  %9 = load ptr, ptr %2, align 8, !tbaa !16
  call void @do_item_unlink_q(ptr noundef %9)
  %10 = load ptr, ptr %2, align 8, !tbaa !16
  %11 = getelementptr inbounds nuw %struct._stritem, ptr %10, i32 0, i32 8
  %12 = load i8, ptr %11, align 8, !tbaa !30
  %13 = zext i8 %12 to i64
  %14 = getelementptr inbounds nuw [256 x %union.pthread_mutex_t], ptr @lru_locks, i64 0, i64 %13
  %15 = call i32 @pthread_mutex_unlock(ptr noundef %14) #9
  ret void
}