; Function Attrs: nounwind uwtable
define internal fastcc void @item_unlink_q(ptr noundef readonly captures(address) %0) unnamed_addr #0 {
  %2 = getelementptr inbounds nuw i8, ptr %0, i64 40
  %3 = load i8, ptr %2, align 8, !tbaa !30
  %4 = zext i8 %3 to i64
  %5 = getelementptr inbounds nuw [256 x %union.pthread_mutex_t], ptr @lru_locks, i64 0, i64 %4
  %6 = tail call i32 @pthread_mutex_lock(ptr noundef nonnull %5) #19
  %7 = load i8, ptr %2, align 8, !tbaa !30
  %8 = zext i8 %7 to i64
  %9 = getelementptr inbounds nuw [256 x ptr], ptr @heads, i64 0, i64 %8
  %10 = getelementptr inbounds nuw [256 x ptr], ptr @tails, i64 0, i64 %8
  %11 = load ptr, ptr %9, align 8, !tbaa !28
  %12 = icmp eq ptr %11, %0
  br i1 %12, label %13, label %15

13:                                               ; preds = %1
  %14 = load ptr, ptr %0, align 8, !tbaa !28
  store ptr %14, ptr %9, align 8, !tbaa !28
  br label %15

15:                                               ; preds = %13, %1
  %16 = load ptr, ptr %10, align 8, !tbaa !28
  %17 = icmp eq ptr %16, %0
  %18 = getelementptr inbounds nuw i8, ptr %0, i64 8
  %19 = load ptr, ptr %18, align 8, !tbaa !28
  br i1 %17, label %20, label %._crit_edge

20:                                               ; preds = %15
  store ptr %19, ptr %10, align 8, !tbaa !28
  br label %._crit_edge

._crit_edge:                                      ; preds = %15, %20
  %21 = load ptr, ptr %0, align 8, !tbaa !28
  %.not.i = icmp eq ptr %21, null
  br i1 %.not.i, label %._crit_edge.i, label %22

22:                                               ; preds = %._crit_edge
  %23 = getelementptr inbounds nuw i8, ptr %21, i64 8
  store ptr %19, ptr %23, align 8, !tbaa !28
  br label %._crit_edge.i

._crit_edge.i:                                    ; preds = %22, %._crit_edge
  %.not31.i = icmp eq ptr %19, null
  br i1 %.not31.i, label %26, label %24

24:                                               ; preds = %._crit_edge.i
  %25 = load ptr, ptr %0, align 8, !tbaa !28
  store ptr %25, ptr %19, align 8, !tbaa !28
  br label %26

26:                                               ; preds = %24, %._crit_edge.i
  %27 = load i8, ptr %2, align 8, !tbaa !30
  %28 = zext i8 %27 to i64
  %29 = getelementptr inbounds nuw [256 x i32], ptr @sizes, i64 0, i64 %28
  %30 = load i32, ptr %29, align 4, !tbaa !22
  %31 = add i32 %30, -1
  store i32 %31, ptr %29, align 4, !tbaa !22
  %32 = getelementptr inbounds nuw i8, ptr %0, i64 38
  %33 = load i16, ptr %32, align 2, !tbaa !31
  %34 = zext i16 %33 to i32
  %35 = and i32 %34, 128
  %.not32.i = icmp eq i32 %35, 0
  %36 = getelementptr inbounds nuw i8, ptr %0, i64 41
  %37 = load i8, ptr %36, align 1, !tbaa !30
  %38 = zext i8 %37 to i64
  br i1 %.not32.i, label %50, label %39

39:                                               ; preds = %26
  %40 = lshr i32 %34, 6
  %41 = and i32 %40, 4
  %42 = shl nuw nsw i32 %34, 2
  %43 = and i32 %42, 8
  %44 = getelementptr inbounds nuw [256 x i64], ptr @sizes_bytes, i64 0, i64 %28
  %45 = load i64, ptr %44, align 8, !tbaa !14
  %46 = or disjoint i32 %41, %43
  %47 = zext nneg i32 %46 to i64
  %48 = add nuw nsw i64 %38, %47
  %reass.sub = sub i64 %45, %48
  %49 = add i64 %reass.sub, -61
  store i64 %49, ptr %44, align 8, !tbaa !14
  br label %do_item_unlink_q.exit

50:                                               ; preds = %26
  %51 = getelementptr inbounds nuw i8, ptr %0, i64 32
  %52 = load i32, ptr %51, align 8, !tbaa !22
  %53 = sext i32 %52 to i64
  %54 = lshr i32 %34, 6
  %55 = and i32 %54, 4
  %56 = shl nuw nsw i32 %34, 2
  %57 = and i32 %56, 8
  %58 = getelementptr inbounds nuw [256 x i64], ptr @sizes_bytes, i64 0, i64 %28
  %59 = load i64, ptr %58, align 8, !tbaa !14
  %60 = or disjoint i32 %55, %57
  %61 = zext nneg i32 %60 to i64
  %62 = add nuw nsw i64 %38, %61
  %63 = add nsw i64 %62, %53
  %reass.sub9 = sub i64 %59, %63
  %64 = add i64 %reass.sub9, -49
  store i64 %64, ptr %58, align 8, !tbaa !14
  br label %do_item_unlink_q.exit

do_item_unlink_q.exit:                            ; preds = %39, %50
  %65 = getelementptr inbounds nuw [256 x %union.pthread_mutex_t], ptr @lru_locks, i64 0, i64 %28
  %66 = tail call i32 @pthread_mutex_unlock(ptr noundef nonnull %65) #19
  ret void
}